ccopy_reg
_reconstructor
p0
(cgoogle.oauth2.credentials
Credentials
p1
c__builtin__
object
p2
Ntp3
Rp4
(dp5
S'_token_uri'
p6
Vhttps://oauth2.googleapis.com/token
p7
sS'_client_secret'
p8
VIiAQNX0VkYPBezt2W9PXJPzK
p9
sS'_id_token'
p10
NsS'token'
p11
Vya29.GluGB26DBQvtY_Q0OB_Q_4uzUnwi55LkULASGi5ZvX4qiAGmrc3Crh-Typsl6sTdAWifUdK9K-4VXjQVLTQj5--jBTzpv4ybIl-gKAnmvwRBI4lLGJ4XCKQuD-Oa
p12
sS'_refresh_token'
p13
V1/C9Ykh_ihwhDPHaLnkiDnl8TXIC2iSusVqjNlluqx1N4
p14
sS'_scopes'
p15
(lp16
S'https://www.googleapis.com/auth/spreadsheets.readonly'
p17
asS'_client_id'
p18
V1006211086498-7ebqmvetdjv1lo2hm3lgr54afepd329e.apps.googleusercontent.com
p19
sS'expiry'
p20
cdatetime
datetime
p21
(S'\x07\xe3\t\x10\x166\x0f\x06(\x92'
p22
tp23
Rp24
sb.